; ModuleID = '56/466.c'
source_filename = "56/466.c"
target datalayout = "e-m:e-p270:32:32-p271:32:32-p272:64:64-i64:64-f80:128-n8:16:32:64-S128"
target triple = "x86_64-pc-linux-gnu"

@.str = private unnamed_addr constant [3 x i8] c"%d\00", align 1

; Function Attrs: noinline nounwind uwtable
define dso_local i32 @main() #0 {
  %1 = alloca i32, align 4
  %2 = alloca i32, align 4
  %3 = alloca i32, align 4
  %4 = alloca [5 x i32], align 16
  %5 = alloca i32, align 4
  %6 = alloca i32, align 4
  store i32 0, i32* %1, align 4
  %7 = call i32 (i8*, ...) @__isoc99_scanf(i8* getelementptr inbounds ([3 x i8], [3 x i8]* @.str, i64 0, i64 0), i32* %2)
  %8 = load i32, i32* %2, align 4
  %9 = icmp sgt i32 %8, 0
  br i1 %9, label %10, label %14

10:                                               ; preds = %0
  %11 = load i32, i32* %2, align 4
  %12 = icmp slt i32 %11, 10
  br i1 %12, label %13, label %14

13:                                               ; preds = %10
  store i32 1, i32* %5, align 4
  br label %46

14:                                               ; preds = %10, %0
  %15 = load i32, i32* %2, align 4
  %16 = icmp sge i32 %15, 10
  br i1 %16, label %17, label %21

17:                                               ; preds = %14
  %18 = load i32, i32* %2, align 4
  %19 = icmp slt i32 %18, 100
  br i1 %19, label %20, label %21

20:                                               ; preds = %17
  store i32 2, i32* %5, align 4
  br label %45

21:                                               ; preds = %17, %14
  %22 = load i32, i32* %2, align 4
  %23 = icmp sge i32 %22, 100
  br i1 %23, label %24, label %28

24:                                               ; preds = %21
  %25 = load i32, i32* %2, align 4
  %26 = icmp slt i32 %25, 1000
  br i1 %26, label %27, label %28

27:                                               ; preds = %24
  store i32 3, i32* %5, align 4
  br label %44

28:                                               ; preds = %24, %21
  %29 = load i32, i32* %2, align 4
  %30 = icmp sge i32 %29, 1000
  br i1 %30, label %31, label %35

31:                                               ; preds = %28
  %32 = load i32, i32* %2, align 4
  %33 = icmp slt i32 %32, 10000
  br i1 %33, label %34, label %35

34:                                               ; preds = %31
  store i32 4, i32* %5, align 4
  br label %43

35:                                               ; preds = %31, %28
  %36 = load i32, i32* %2, align 4
  %37 = icmp sge i32 %36, 10000
  br i1 %37, label %38, label %42

38:                                               ; preds = %35
  %39 = load i32, i32* %2, align 4
  %40 = icmp sle i32 %39, 99999
  br i1 %40, label %41, label %42

41:                                               ; preds = %38
  store i32 5, i32* %5, align 4
  br label %42

42:                                               ; preds = %41, %38, %35
  br label %43

43:                                               ; preds = %42, %34
  br label %44

44:                                               ; preds = %43, %27
  br label %45

45:                                               ; preds = %44, %20
  br label %46

46:                                               ; preds = %45, %13
  %47 = load i32, i32* %5, align 4
  %48 = sub nsw i32 %47, 1
  store i32 %48, i32* %3, align 4
  br label %49

49:                                               ; preds = %71, %46
  %50 = load i32, i32* %3, align 4
  %51 = icmp sge i32 %50, 0
  br i1 %51, label %52, label %74

52:                                               ; preds = %49
  %53 = load i32, i32* %3, align 4
  %54 = sitofp i32 %53 to double
  %55 = call double @pow(double 1.000000e+01, double %54) #3
  %56 = fptosi double %55 to i32
  store i32 %56, i32* %6, align 4
  %57 = load i32, i32* %2, align 4
  %58 = load i32, i32* %6, align 4
  %59 = sdiv i32 %57, %58
  %60 = load i32, i32* %3, align 4
  %61 = sext i32 %60 to i64
  %62 = getelementptr inbounds [5 x i32], [5 x i32]* %4, i64 0, i64 %61
  store i32 %59, i32* %62, align 4
  %63 = load i32, i32* %2, align 4
  %64 = load i32, i32* %3, align 4
  %65 = sext i32 %64 to i64
  %66 = getelementptr inbounds [5 x i32], [5 x i32]* %4, i64 0, i64 %65
  %67 = load i32, i32* %66, align 4
  %68 = load i32, i32* %6, align 4
  %69 = mul nsw i32 %67, %68
  %70 = sub nsw i32 %63, %69
  store i32 %70, i32* %2, align 4
  br label %71

71:                                               ; preds = %52
  %72 = load i32, i32* %3, align 4
  %73 = add nsw i32 %72, -1
  store i32 %73, i32* %3, align 4
  br label %49

74:                                               ; preds = %49
  store i32 0, i32* %3, align 4
  br label %75

75:                                               ; preds = %85, %74
  %76 = load i32, i32* %3, align 4
  %77 = load i32, i32* %5, align 4
  %78 = icmp slt i32 %76, %77
  br i1 %78, label %79, label %88

79:                                               ; preds = %75
  %80 = load i32, i32* %3, align 4
  %81 = sext i32 %80 to i64
  %82 = getelementptr inbounds [5 x i32], [5 x i32]* %4, i64 0, i64 %81
  %83 = load i32, i32* %82, align 4
  %84 = call i32 (i8*, ...) @printf(i8* getelementptr inbounds ([3 x i8], [3 x i8]* @.str, i64 0, i64 0), i32 %83)
  br label %85

85:                                               ; preds = %79
  %86 = load i32, i32* %3, align 4
  %87 = add nsw i32 %86, 1
  store i32 %87, i32* %3, align 4
  br label %75

88:                                               ; preds = %75
  ret i32 0
}

declare dso_local i32 @__isoc99_scanf(i8*, ...) #1

; Function Attrs: nounwind
declare dso_local double @pow(double, double) #2

declare dso_local i32 @printf(i8*, ...) #1


!llvm.module.flags = !{!0}
!llvm.ident = !{!1}

!0 = !{i32 1, !"wchar_size", i32 4}
!1 = !{!"clang version 10.0.0-4ubuntu1 "}
